target datalayout = "e-m:e-p270:32:32-p271:32:32-p272:64:64-i64:64-i128:128-f80:128-n8:16:32:64-S128"
target triple = "x86_64-pc-linux-gnu"

%struct.Ppoly_t = type { ptr, i64 }
%struct.Pxy_t = type { double, double }

@make_polyline.isz = internal global i64 0, align 8
@make_polyline.ispline = internal global ptr null, align 8
@stderr = external global ptr, align 8
@.str = private unnamed_addr constant [58 x i8] c"integer overflow when trying to allocate %zu * %zu bytes\0A\00", align 1
@.str.1 = private unnamed_addr constant [49 x i8] c"out of memory when trying to allocate %zu bytes\0A\00", align 1

; Function Attrs: inlinehint nounwind uwtable
define internal ptr @gv_realloc(ptr noundef %0, i64 noundef %1, i64 noundef %2) #3 {
  %4 = alloca ptr, align 8
  %5 = alloca ptr, align 8
  %6 = alloca i64, align 8
  %7 = alloca i64, align 8
  %8 = alloca ptr, align 8
  store ptr %0, ptr %5, align 8, !tbaa !35
  store i64 %1, ptr %6, align 8, !tbaa !27
  store i64 %2, ptr %7, align 8, !tbaa !27
  %9 = load i64, ptr %7, align 8, !tbaa !27
  %10 = icmp eq i64 %9, 0
  br i1 %10, label %11, label %13

11:                                               ; preds = %3
  %12 = load ptr, ptr %5, align 8, !tbaa !35
  call void @free(ptr noundef %12) #10
  store ptr null, ptr %4, align 8
  br label %36

13:                                               ; preds = %3
  call void @llvm.lifetime.start.p0(i64 8, ptr %8) #10
  %14 = load ptr, ptr %5, align 8, !tbaa !35
  %15 = load i64, ptr %7, align 8, !tbaa !27
  %16 = call ptr @realloc(ptr noundef %14, i64 noundef %15) #14
  store ptr %16, ptr %8, align 8, !tbaa !35
  %17 = load ptr, ptr %8, align 8, !tbaa !35
  %18 = icmp eq ptr %17, null
  br i1 %18, label %19, label %23

19:                                               ; preds = %13
  %20 = load ptr, ptr @stderr, align 8, !tbaa !33
  %21 = load i64, ptr %7, align 8, !tbaa !27
  %22 = call i32 (ptr, ptr, ...) @fprintf(ptr noundef %20, ptr noundef @.str.1, i64 noundef %21) #10
  call void @graphviz_exit(i32 noundef 1) #11
  unreachable

23:                                               ; preds = %13
  %24 = load i64, ptr %7, align 8, !tbaa !27
  %25 = load i64, ptr %6, align 8, !tbaa !27
  %26 = icmp ugt i64 %24, %25
  br i1 %26, label %27, label %34

27:                                               ; preds = %23
  %28 = load ptr, ptr %8, align 8, !tbaa !35
  %29 = load i64, ptr %6, align 8, !tbaa !27
  %30 = getelementptr inbounds nuw i8, ptr %28, i64 %29
  %31 = load i64, ptr %7, align 8, !tbaa !27
  %32 = load i64, ptr %6, align 8, !tbaa !27
  %33 = sub i64 %31, %32
  call void @llvm.memset.p0.i64(ptr align 1 %30, i8 0, i64 %33, i1 false)
  br label %34

34:                                               ; preds = %27, %23
  %35 = load ptr, ptr %8, align 8, !tbaa !35
  store ptr %35, ptr %4, align 8
  call void @llvm.lifetime.end.p0(i64 8, ptr %8) #10
  br label %36

36:                                               ; preds = %34, %11
  %37 = load ptr, ptr %4, align 8
  ret ptr %37
}

; Function Attrs: inlinehint nounwind uwtable
define internal ptr @gv_recalloc(ptr noundef %0, i64 noundef %1, i64 noundef %2, i64 noundef %3) #3 {
  %5 = alloca ptr, align 8
  %6 = alloca i64, align 8
  %7 = alloca i64, align 8
  %8 = alloca i64, align 8
  store ptr %0, ptr %5, align 8, !tbaa !35
  store i64 %1, ptr %6, align 8, !tbaa !27
  store i64 %2, ptr %7, align 8, !tbaa !27
  store i64 %3, ptr %8, align 8, !tbaa !27
  %9 = load i64, ptr %7, align 8, !tbaa !27
  %10 = load i64, ptr %8, align 8, !tbaa !27
  %11 = udiv i64 -1, %10
  %12 = icmp ugt i64 %9, %11
  br i1 %12, label %13, label %18

13:                                               ; preds = %4
  %14 = load ptr, ptr @stderr, align 8, !tbaa !33
  %15 = load i64, ptr %7, align 8, !tbaa !27
  %16 = load i64, ptr %8, align 8, !tbaa !27
  %17 = call i32 (ptr, ptr, ...) @fprintf(ptr noundef %14, ptr noundef @.str, i64 noundef %15, i64 noundef %16) #10
  call void @graphviz_exit(i32 noundef 1) #11
  unreachable

18:                                               ; preds = %4
  %19 = load ptr, ptr %5, align 8, !tbaa !35
  %20 = load i64, ptr %6, align 8, !tbaa !27
  %21 = load i64, ptr %8, align 8, !tbaa !27
  %22 = mul i64 %20, %21
  %23 = load i64, ptr %7, align 8, !tbaa !27
  %24 = load i64, ptr %8, align 8, !tbaa !27
  %25 = mul i64 %23, %24
  %26 = call ptr @gv_realloc(ptr noundef %19, i64 noundef %22, i64 noundef %25)
  ret ptr %26
}

; Function Attrs: nounwind uwtable
define void @make_polyline(ptr %0, i64 %1, ptr noundef %2) #0 {
  %4 = alloca %struct.Ppoly_t, align 8
  %5 = alloca ptr, align 8
  %6 = alloca i64, align 8
  %7 = alloca i64, align 8
  %8 = alloca i64, align 8
  %9 = getelementptr inbounds nuw { ptr, i64 }, ptr %4, i32 0, i32 0
  store ptr %0, ptr %9, align 8
  %10 = getelementptr inbounds nuw { ptr, i64 }, ptr %4, i32 0, i32 1
  store i64 %1, ptr %10, align 8
  store ptr %2, ptr %5, align 8, !tbaa !3
  call void @llvm.lifetime.start.p0(i64 8, ptr %6) #10
  %11 = getelementptr inbounds nuw %struct.Ppoly_t, ptr %4, i32 0, i32 1
  %12 = load i64, ptr %11, align 8, !tbaa !20
  %13 = sub i64 %12, 2
  %14 = mul i64 3, %13
  %15 = add i64 4, %14
  store i64 %15, ptr %6, align 8, !tbaa !27
  %16 = load i64, ptr %6, align 8, !tbaa !27
  %17 = load i64, ptr @make_polyline.isz, align 8, !tbaa !27
  %18 = icmp ugt i64 %16, %17
  br i1 %18, label %19, label %25

19:                                               ; preds = %3
  %20 = load ptr, ptr @make_polyline.ispline, align 8, !tbaa !26
  %21 = load i64, ptr @make_polyline.isz, align 8, !tbaa !27
  %22 = load i64, ptr %6, align 8, !tbaa !27
  %23 = call ptr @gv_recalloc(ptr noundef %20, i64 noundef %21, i64 noundef %22, i64 noundef 16)
  store ptr %23, ptr @make_polyline.ispline, align 8, !tbaa !26
  %24 = load i64, ptr %6, align 8, !tbaa !27
  store i64 %24, ptr @make_polyline.isz, align 8, !tbaa !27
  br label %25

25:                                               ; preds = %19, %3
  call void @llvm.lifetime.start.p0(i64 8, ptr %7) #10
  store i64 0, ptr %7, align 8, !tbaa !27
  call void @llvm.lifetime.start.p0(i64 8, ptr %8) #10
  store i64 0, ptr %8, align 8, !tbaa !27
  %26 = load ptr, ptr @make_polyline.ispline, align 8, !tbaa !26
  %27 = load i64, ptr %7, align 8, !tbaa !27
  %28 = add i64 %27, 1
  %29 = getelementptr inbounds nuw %struct.Pxy_t, ptr %26, i64 %28
  %30 = load ptr, ptr @make_polyline.ispline, align 8, !tbaa !26
  %31 = load i64, ptr %7, align 8, !tbaa !27
  %32 = getelementptr inbounds nuw %struct.Pxy_t, ptr %30, i64 %31
  %33 = getelementptr inbounds nuw %struct.Ppoly_t, ptr %4, i32 0, i32 0
  %34 = load ptr, ptr %33, align 8, !tbaa !8
  %35 = load i64, ptr %8, align 8, !tbaa !27
  %36 = getelementptr inbounds nuw %struct.Pxy_t, ptr %34, i64 %35
  call void @llvm.memcpy.p0.p0.i64(ptr align 8 %32, ptr align 8 %36, i64 16, i1 false), !tbaa.struct !28
  call void @llvm.memcpy.p0.p0.i64(ptr align 8 %29, ptr align 8 %32, i64 16, i1 false), !tbaa.struct !28
  %37 = load i64, ptr %7, align 8, !tbaa !27
  %38 = add i64 %37, 2
  store i64 %38, ptr %7, align 8, !tbaa !27
  %39 = load i64, ptr %8, align 8, !tbaa !27
  %40 = add i64 %39, 1
  store i64 %40, ptr %8, align 8, !tbaa !27
  br label %41

41:                                               ; preds = %65, %25
  %42 = load i64, ptr %8, align 8, !tbaa !27
  %43 = add i64 %42, 1
  %44 = getelementptr inbounds nuw %struct.Ppoly_t, ptr %4, i32 0, i32 1
  %45 = load i64, ptr %44, align 8, !tbaa !20
  %46 = icmp ult i64 %43, %45
  br i1 %46, label %47, label %68

47:                                               ; preds = %41
  %48 = load ptr, ptr @make_polyline.ispline, align 8, !tbaa !26
  %49 = load i64, ptr %7, align 8, !tbaa !27
  %50 = add i64 %49, 2
  %51 = getelementptr inbounds nuw %struct.Pxy_t, ptr %48, i64 %50
  %52 = load ptr, ptr @make_polyline.ispline, align 8, !tbaa !26
  %53 = load i64, ptr %7, align 8, !tbaa !27
  %54 = add i64 %53, 1
  %55 = getelementptr inbounds nuw %struct.Pxy_t, ptr %52, i64 %54
  %56 = load ptr, ptr @make_polyline.ispline, align 8, !tbaa !26
  %57 = load i64, ptr %7, align 8, !tbaa !27
  %58 = getelementptr inbounds nuw %struct.Pxy_t, ptr %56, i64 %57
  %59 = getelementptr inbounds nuw %struct.Ppoly_t, ptr %4, i32 0, i32 0
  %60 = load ptr, ptr %59, align 8, !tbaa !8
  %61 = load i64, ptr %8, align 8, !tbaa !27
  %62 = getelementptr inbounds nuw %struct.Pxy_t, ptr %60, i64 %61
  call void @llvm.memcpy.p0.p0.i64(ptr align 8 %58, ptr align 8 %62, i64 16, i1 false), !tbaa.struct !28
  call void @llvm.memcpy.p0.p0.i64(ptr align 8 %55, ptr align 8 %58, i64 16, i1 false), !tbaa.struct !28
  call void @llvm.memcpy.p0.p0.i64(ptr align 8 %51, ptr align 8 %55, i64 16, i1 false), !tbaa.struct !28
  %63 = load i64, ptr %7, align 8, !tbaa !27
  %64 = add i64 %63, 3
  store i64 %64, ptr %7, align 8, !tbaa !27
  br label %65

65:                                               ; preds = %47
  %66 = load i64, ptr %8, align 8, !tbaa !27
  %67 = add i64 %66, 1
  store i64 %67, ptr %8, align 8, !tbaa !27
  br label %41, !llvm.loop !36

68:                                               ; preds = %41
  %69 = load ptr, ptr @make_polyline.ispline, align 8, !tbaa !26
  %70 = load i64, ptr %7, align 8, !tbaa !27
  %71 = add i64 %70, 1
  %72 = getelementptr inbounds nuw %struct.Pxy_t, ptr %69, i64 %71
  %73 = load ptr, ptr @make_polyline.ispline, align 8, !tbaa !26
  %74 = load i64, ptr %7, align 8, !tbaa !27
  %75 = getelementptr inbounds nuw %struct.Pxy_t, ptr %73, i64 %74
  %76 = getelementptr inbounds nuw %struct.Ppoly_t, ptr %4, i32 0, i32 0
  %77 = load ptr, ptr %76, align 8, !tbaa !8
  %78 = load i64, ptr %8, align 8, !tbaa !27
  %79 = getelementptr inbounds nuw %struct.Pxy_t, ptr %77, i64 %78
  call void @llvm.memcpy.p0.p0.i64(ptr align 8 %75, ptr align 8 %79, i64 16, i1 false), !tbaa.struct !28
  call void @llvm.memcpy.p0.p0.i64(ptr align 8 %72, ptr align 8 %75, i64 16, i1 false), !tbaa.struct !28
  %80 = load i64, ptr %6, align 8, !tbaa !27
  %81 = load ptr, ptr %5, align 8, !tbaa !3
  %82 = getelementptr inbounds nuw %struct.Ppoly_t, ptr %81, i32 0, i32 1
  store i64 %80, ptr %82, align 8, !tbaa !20
  %83 = load ptr, ptr @make_polyline.ispline, align 8, !tbaa !26
  %84 = load ptr, ptr %5, align 8, !tbaa !3
  %85 = getelementptr inbounds nuw %struct.Ppoly_t, ptr %84, i32 0, i32 0
  store ptr %83, ptr %85, align 8, !tbaa !8
  call void @llvm.lifetime.end.p0(i64 8, ptr %8) #10
  call void @llvm.lifetime.end.p0(i64 8, ptr %7) #10
  call void @llvm.lifetime.end.p0(i64 8, ptr %6) #10
  ret void
}