; Function Attrs: nounwind uwtable
define void @make_polyline(ptr readonly captures(none) %0, i64 %1, ptr noundef writeonly captures(none) %2) local_unnamed_addr #4 {
  %4 = mul i64 %1, 3
  %5 = add i64 %4, -2
  %6 = load i64, ptr @make_polyline.isz, align 8, !tbaa !18
  %7 = icmp ugt i64 %5, %6
  br i1 %7, label %8, label %._crit_edge31

._crit_edge31:                                    ; preds = %3
  %.pre = load ptr, ptr @make_polyline.ispline, align 8, !tbaa !17
  br label %27

8:                                                ; preds = %3
  %9 = icmp ugt i64 %5, 1152921504606846975
  br i1 %9, label %10, label %13

10:                                               ; preds = %8
  %11 = load ptr, ptr @stderr, align 8, !tbaa !15
  %12 = tail call i32 (ptr, ptr, ...) @fprintf(ptr noundef %11, ptr noundef nonnull @.str, i64 noundef %5, i64 noundef 16) #13
  tail call fastcc void @graphviz_exit() #14
  unreachable

13:                                               ; preds = %8
  %14 = load ptr, ptr @make_polyline.ispline, align 8, !tbaa !17
  %15 = shl i64 %6, 4
  %16 = shl nuw i64 %5, 4
  %17 = tail call ptr @realloc(ptr noundef %14, i64 noundef range(i64 0, -15) %16) #16
  %18 = icmp eq ptr %17, null
  br i1 %18, label %19, label %22

19:                                               ; preds = %13
  %20 = load ptr, ptr @stderr, align 8, !tbaa !15
  %21 = tail call i32 (ptr, ptr, ...) @fprintf(ptr noundef %20, ptr noundef nonnull @.str.1, i64 noundef range(i64 0, -15) %16) #13
  tail call fastcc void @graphviz_exit() #14
  unreachable

22:                                               ; preds = %13
  %23 = icmp ugt i64 %16, %15
  br i1 %23, label %24, label %gv_recalloc.exit

24:                                               ; preds = %22
  %25 = getelementptr inbounds nuw i8, ptr %17, i64 %15
  %26 = sub nuw i64 %16, %15
  tail call void @llvm.memset.p0.i64(ptr nonnull align 1 %25, i8 0, i64 %26, i1 false)
  br label %gv_recalloc.exit

gv_recalloc.exit:                                 ; preds = %22, %24
  store ptr %17, ptr @make_polyline.ispline, align 8, !tbaa !17
  store i64 %5, ptr @make_polyline.isz, align 8, !tbaa !18
  br label %27

27:                                               ; preds = %._crit_edge31, %gv_recalloc.exit
  %28 = phi ptr [ %.pre, %._crit_edge31 ], [ %17, %gv_recalloc.exit ]
  %29 = getelementptr inbounds nuw i8, ptr %28, i64 16
  tail call void @llvm.memcpy.p0.p0.i64(ptr noundef nonnull align 8 dereferenceable(16) %28, ptr noundef nonnull align 8 dereferenceable(16) %0, i64 16, i1 false), !tbaa.struct !20
  tail call void @llvm.memmove.p0.p0.i64(ptr noundef nonnull align 8 dereferenceable(16) %29, ptr noundef nonnull align 8 dereferenceable(16) %0, i64 16, i1 false)
  %30 = icmp ugt i64 %1, 2
  br i1 %30, label %.lr.ph, label %._crit_edge

.lr.ph:                                           ; preds = %27, %.lr.ph
  %31 = phi i64 [ %37, %.lr.ph ], [ 2, %27 ]
  %.028 = phi i64 [ %31, %.lr.ph ], [ 1, %27 ]
  %.02327 = phi i64 [ %36, %.lr.ph ], [ 2, %27 ]
  %32 = getelementptr %struct.Pxy_t, ptr %28, i64 %.02327
  %33 = getelementptr i8, ptr %32, i64 32
  %34 = getelementptr i8, ptr %32, i64 16
  %35 = getelementptr inbounds nuw %struct.Pxy_t, ptr %0, i64 %.028
  tail call void @llvm.memcpy.p0.p0.i64(ptr noundef nonnull align 8 dereferenceable(16) %32, ptr noundef nonnull align 8 dereferenceable(16) %35, i64 16, i1 false), !tbaa.struct !20
  tail call void @llvm.memmove.p0.p0.i64(ptr noundef nonnull align 8 dereferenceable(16) %34, ptr noundef nonnull align 8 dereferenceable(16) %35, i64 16, i1 false)
  tail call void @llvm.memcpy.p0.p0.i64(ptr noundef nonnull align 8 dereferenceable(16) %33, ptr noundef nonnull align 8 dereferenceable(16) %34, i64 16, i1 false), !tbaa.struct !20
  %36 = add i64 %.02327, 3
  %37 = add nuw i64 %31, 1
  %exitcond.not = icmp eq i64 %37, %1
  br i1 %exitcond.not, label %._crit_edge, label %.lr.ph, !llvm.loop !28

._crit_edge:                                      ; preds = %.lr.ph, %27
  %.023.lcssa = phi i64 [ 2, %27 ], [ %36, %.lr.ph ]
  %.0.lcssa = phi i64 [ 1, %27 ], [ %31, %.lr.ph ]
  %38 = getelementptr %struct.Pxy_t, ptr %28, i64 %.023.lcssa
  %39 = getelementptr i8, ptr %38, i64 16
  %40 = getelementptr inbounds nuw %struct.Pxy_t, ptr %0, i64 %.0.lcssa
  tail call void @llvm.memcpy.p0.p0.i64(ptr noundef nonnull align 8 dereferenceable(16) %38, ptr noundef nonnull align 8 dereferenceable(16) %40, i64 16, i1 false), !tbaa.struct !20
  tail call void @llvm.memmove.p0.p0.i64(ptr noundef nonnull align 8 dereferenceable(16) %39, ptr noundef nonnull align 8 dereferenceable(16) %40, i64 16, i1 false)
  %41 = getelementptr inbounds nuw i8, ptr %2, i64 8
  store i64 %5, ptr %41, align 8, !tbaa !12
  store ptr %28, ptr %2, align 8, !tbaa !3
  ret void
}